; Function Attrs: nounwind uwtable
define hidden zeroext i8 @isSameObject(ptr noundef %0, ptr noundef %1, ptr noundef %2) local_unnamed_addr #0 {
  %4 = icmp eq ptr %1, %2
  br i1 %4, label %10, label %5

5:                                                ; preds = %3
  %6 = load ptr, ptr %0, align 8
  %7 = getelementptr inbounds i8, ptr %6, i64 192
  %8 = load ptr, ptr %7, align 8
  %9 = tail call zeroext i8 %8(ptr noundef nonnull %0, ptr noundef %1, ptr noundef %2) #14
  br label %10

10:                                               ; preds = %3, %5
  %.0 = phi i8 [ %9, %5 ], [ 1, %3 ]
  ret i8 %.0
}